; Function Attrs: nounwind uwtable
define hidden i32 @mbedtls_ccm_encrypt_and_tag(ptr noundef %0, i64 noundef %1, ptr noundef readonly captures(none) %2, i64 noundef %3, ptr noundef readonly captures(none) %4, i64 noundef %5, ptr noundef readonly captures(none) %6, ptr noundef writeonly captures(none) %7, ptr noundef %8, i64 noundef %9) local_unnamed_addr #2 {
  %11 = alloca i64, align 8
  call void @llvm.lifetime.start.p0(i64 8, ptr nonnull %11) #10
  %12 = tail call i32 @mbedtls_ccm_starts(ptr noundef %0, i32 noundef 1, ptr noundef readonly %2, i64 noundef %3)
  %.not.i = icmp eq i32 %12, 0
  br i1 %.not.i, label %13, label %ccm_auth_crypt.exit

13:                                               ; preds = %10
  %14 = tail call i32 @mbedtls_ccm_set_lengths(ptr noundef %0, i64 noundef %5, i64 noundef %1, i64 noundef %9)
  %.not29.i = icmp eq i32 %14, 0
  br i1 %.not29.i, label %15, label %ccm_auth_crypt.exit

15:                                               ; preds = %13
  %16 = tail call i32 @mbedtls_ccm_update_ad(ptr noundef %0, ptr noundef readonly %4, i64 noundef %5)
  %.not30.i = icmp eq i32 %16, 0
  br i1 %.not30.i, label %17, label %ccm_auth_crypt.exit

17:                                               ; preds = %15
  %18 = call i32 @mbedtls_ccm_update(ptr noundef %0, ptr noundef readonly %6, i64 noundef %1, ptr noundef %7, i64 noundef %1, ptr noundef nonnull %11)
  %.not31.i = icmp eq i32 %18, 0
  br i1 %.not31.i, label %19, label %ccm_auth_crypt.exit

19:                                               ; preds = %17
  %20 = tail call i32 @mbedtls_ccm_finish(ptr noundef %0, ptr noundef %8, i64 noundef %9)
  br label %ccm_auth_crypt.exit

ccm_auth_crypt.exit:                              ; preds = %10, %13, %15, %17, %19
  %.0.i = phi i32 [ %12, %10 ], [ %14, %13 ], [ %16, %15 ], [ %18, %17 ], [ %20, %19 ]
  call void @llvm.lifetime.end.p0(i64 8, ptr nonnull %11) #10
  ret i32 %.0.i
}